; ModuleID = '38/463.c'
source_filename = "38/463.c"
target datalayout = "e-m:e-p270:32:32-p271:32:32-p272:64:64-i64:64-f80:128-n8:16:32:64-S128"
target triple = "x86_64-pc-linux-gnu"

@.str = private unnamed_addr constant [3 x i8] c"%d\00", align 1
@.str.1 = private unnamed_addr constant [4 x i8] c"%lf\00", align 1
@.str.2 = private unnamed_addr constant [7 x i8] c"%.5lf\0A\00", align 1

; Function Attrs: noinline nounwind uwtable
define dso_local i32 @main() #0 {
  %1 = alloca i32, align 4
  %2 = alloca i32, align 4
  %3 = alloca i32, align 4
  %4 = alloca i32, align 4
  %5 = alloca [10000 x double], align 16
  %6 = alloca i32, align 4
  %7 = alloca [100 x double], align 16
  %8 = alloca double, align 8
  %9 = alloca double, align 8
  %10 = alloca double, align 8
  store i32 0, i32* %1, align 4
  %11 = call i32 (i8*, ...) @__isoc99_scanf(i8* getelementptr inbounds ([3 x i8], [3 x i8]* @.str, i64 0, i64 0), i32* %4)
  store i32 0, i32* %2, align 4
  br label %12

12:                                               ; preds = %67, %0
  %13 = load i32, i32* %2, align 4
  %14 = load i32, i32* %4, align 4
  %15 = icmp slt i32 %13, %14
  br i1 %15, label %16, label %70

16:                                               ; preds = %12
  store double 0.000000e+00, double* %8, align 8
  %17 = call i32 (i8*, ...) @__isoc99_scanf(i8* getelementptr inbounds ([3 x i8], [3 x i8]* @.str, i64 0, i64 0), i32* %6)
  store i32 0, i32* %3, align 4
  br label %18

18:                                               ; preds = %33, %16
  %19 = load i32, i32* %3, align 4
  %20 = load i32, i32* %6, align 4
  %21 = icmp slt i32 %19, %20
  br i1 %21, label %22, label %36

22:                                               ; preds = %18
  %23 = load i32, i32* %3, align 4
  %24 = sext i32 %23 to i64
  %25 = getelementptr inbounds [100 x double], [100 x double]* %7, i64 0, i64 %24
  %26 = call i32 (i8*, ...) @__isoc99_scanf(i8* getelementptr inbounds ([4 x i8], [4 x i8]* @.str.1, i64 0, i64 0), double* %25)
  %27 = load i32, i32* %3, align 4
  %28 = sext i32 %27 to i64
  %29 = getelementptr inbounds [100 x double], [100 x double]* %7, i64 0, i64 %28
  %30 = load double, double* %29, align 8
  %31 = load double, double* %8, align 8
  %32 = fadd double %31, %30
  store double %32, double* %8, align 8
  br label %33

33:                                               ; preds = %22
  %34 = load i32, i32* %3, align 4
  %35 = add nsw i32 %34, 1
  store i32 %35, i32* %3, align 4
  br label %18

36:                                               ; preds = %18
  %37 = load double, double* %8, align 8
  %38 = load i32, i32* %6, align 4
  %39 = sitofp i32 %38 to double
  %40 = fdiv double %37, %39
  store double %40, double* %9, align 8
  store double 0.000000e+00, double* %10, align 8
  store i32 0, i32* %3, align 4
  br label %41

41:                                               ; preds = %55, %36
  %42 = load i32, i32* %3, align 4
  %43 = load i32, i32* %6, align 4
  %44 = icmp slt i32 %42, %43
  br i1 %44, label %45, label %58

45:                                               ; preds = %41
  %46 = load i32, i32* %3, align 4
  %47 = sext i32 %46 to i64
  %48 = getelementptr inbounds [100 x double], [100 x double]* %7, i64 0, i64 %47
  %49 = load double, double* %48, align 8
  %50 = load double, double* %9, align 8
  %51 = fsub double %49, %50
  %52 = call double @pow(double %51, double 2.000000e+00) #3
  %53 = load double, double* %10, align 8
  %54 = fadd double %53, %52
  store double %54, double* %10, align 8
  br label %55

55:                                               ; preds = %45
  %56 = load i32, i32* %3, align 4
  %57 = add nsw i32 %56, 1
  store i32 %57, i32* %3, align 4
  br label %41

58:                                               ; preds = %41
  %59 = load double, double* %10, align 8
  %60 = load i32, i32* %6, align 4
  %61 = sitofp i32 %60 to double
  %62 = fdiv double %59, %61
  %63 = call double @sqrt(double %62) #3
  %64 = load i32, i32* %2, align 4
  %65 = sext i32 %64 to i64
  %66 = getelementptr inbounds [10000 x double], [10000 x double]* %5, i64 0, i64 %65
  store double %63, double* %66, align 8
  br label %67

67:                                               ; preds = %58
  %68 = load i32, i32* %2, align 4
  %69 = add nsw i32 %68, 1
  store i32 %69, i32* %2, align 4
  br label %12

70:                                               ; preds = %12
  store i32 0, i32* %2, align 4
  br label %71

71:                                               ; preds = %81, %70
  %72 = load i32, i32* %2, align 4
  %73 = load i32, i32* %4, align 4
  %74 = icmp slt i32 %72, %73
  br i1 %74, label %75, label %84

75:                                               ; preds = %71
  %76 = load i32, i32* %2, align 4
  %77 = sext i32 %76 to i64
  %78 = getelementptr inbounds [10000 x double], [10000 x double]* %5, i64 0, i64 %77
  %79 = load double, double* %78, align 8
  %80 = call i32 (i8*, ...) @printf(i8* getelementptr inbounds ([7 x i8], [7 x i8]* @.str.2, i64 0, i64 0), double %79)
  br label %81

81:                                               ; preds = %75
  %82 = load i32, i32* %2, align 4
  %83 = add nsw i32 %82, 1
  store i32 %83, i32* %2, align 4
  br label %71

84:                                               ; preds = %71
  ret i32 0
}

declare dso_local i32 @__isoc99_scanf(i8*, ...) #1

; Function Attrs: nounwind
declare dso_local double @pow(double, double) #2

; Function Attrs: nounwind
declare dso_local double @sqrt(double) #2

declare dso_local i32 @printf(i8*, ...) #1


!llvm.module.flags = !{!0}
!llvm.ident = !{!1}

!0 = !{i32 1, !"wchar_size", i32 4}
!1 = !{!"clang version 10.0.0-4ubuntu1 "}
